; Function Attrs: nounwind uwtable
define void @Acb_NtkPushLogic2(ptr noundef captures(none) initializes((436, 440)) %0, i32 noundef %1, i32 noundef %2) local_unnamed_addr #0 {
  tail call fastcc void @Acb_NtkCreateFanout(ptr noundef %0)
  %4 = getelementptr i8, ptr %0, i64 116
  %.val18 = load i32, ptr %4, align 4, !tbaa !45
  %5 = icmp sgt i32 %.val18, 1
  br i1 %5, label %.lr.ph, label %._crit_edge

.lr.ph:                                           ; preds = %3
  %6 = getelementptr i8, ptr %0, i64 120
  %.val15 = load ptr, ptr %6, align 8, !tbaa !32
  %wide.trip.count = zext nneg i32 %.val18 to i64
  br label %7

7:                                                ; preds = %.lr.ph, %10
  %indvars.iv = phi i64 [ 1, %.lr.ph ], [ %indvars.iv.next, %10 ]
  %8 = getelementptr inbounds nuw i8, ptr %.val15, i64 %indvars.iv
  %9 = load i8, ptr %8, align 1, !tbaa !36
  switch i8 %9, label %._crit_edge.loopexit.split.loop.exit [
    i8 4, label %10
    i8 3, label %10
    i8 0, label %10
  ]

10:                                               ; preds = %7, %7, %7
  %indvars.iv.next = add nuw nsw i64 %indvars.iv, 1
  %exitcond.not = icmp eq i64 %indvars.iv.next, %wide.trip.count
  br i1 %exitcond.not, label %._crit_edge, label %7, !llvm.loop !57

._crit_edge.loopexit.split.loop.exit:             ; preds = %7
  %11 = trunc nuw nsw i64 %indvars.iv to i32
  br label %._crit_edge

._crit_edge:                                      ; preds = %10, %._crit_edge.loopexit.split.loop.exit, %3
  %.0.lcssa = phi i32 [ 1, %3 ], [ %11, %._crit_edge.loopexit.split.loop.exit ], [ %.val18, %10 ]
  %12 = getelementptr i8, ptr %0, i64 136
  %.val = load ptr, ptr %12, align 8, !tbaa !12
  %13 = getelementptr i8, ptr %0, i64 152
  %.val14 = load ptr, ptr %13, align 8, !tbaa !12
  %14 = zext nneg i32 %.0.lcssa to i64
  %15 = getelementptr inbounds nuw i32, ptr %.val, i64 %14
  %16 = load i32, ptr %15, align 4, !tbaa !15
  %17 = sext i32 %16 to i64
  %18 = getelementptr inbounds i32, ptr %.val14, i64 %17
  %19 = load i32, ptr %18, align 4, !tbaa !15
  %20 = add nsw i32 %19, -1
  %21 = getelementptr i8, ptr %0, i64 440
  %.val17 = load ptr, ptr %21, align 8, !tbaa !19
  %22 = getelementptr %struct.Vec_Int_t_, ptr %.val17, i64 %14, i32 2
  %.val.i = load ptr, ptr %22, align 8, !tbaa !12
  %23 = load i32, ptr %.val.i, align 4, !tbaa !15
  tail call void @Acb_ObjPushToFanout(ptr noundef nonnull %0, i32 noundef %.0.lcssa, i32 noundef %20, i32 noundef %23)
  ret void
}